target datalayout = "e-m:e-p270:32:32-p271:32:32-p272:64:64-i64:64-i128:128-f80:128-n8:16:32:64-S128"
target triple = "x86_64-pc-linux-gnu"

%struct._dumpOptions = type { %struct._connParams, i32, i32, i8, ptr, i32, i32, i32, i32, i32, i32, i32, i32, i32, i32, i32, i32, i32, i32, i32, i32, i32, i8, i32, i32, i8, i8, i32, ptr, i32, i32, i8, i8 }
%struct._connParams = type { ptr, ptr, ptr, ptr, i32, ptr }
%struct.CatalogId = type { i32, i32 }
%struct._dumpableObject = type { i32, %struct.CatalogId, i32, ptr, ptr, i32, i32, i32, i8, i8, ptr, i32, i32 }
%struct._tableInfo = type { %struct._dumpableObject, %struct._dumpableAcl, ptr, i8, i8, i8, i8, ptr, ptr, ptr, ptr, i8, i8, i8, i8, i8, i8, i8, i32, i32, i32, i32, i32, i32, i32, i32, i32, i32, i32, i8, i32, i32, i8, i8, i8, i8, i8, i32, ptr, i32, ptr, ptr, ptr, ptr, ptr, ptr, ptr, ptr, ptr, ptr, ptr, ptr, ptr, ptr, ptr, ptr, ptr, ptr, ptr, ptr, ptr, i8, ptr, i32, ptr, ptr, i32, ptr }
%struct._dumpableAcl = type { ptr, ptr, i8, ptr }

; Function Attrs: nounwind uwtable
define dso_local zeroext i1 @shouldPrintColumn(ptr noundef %0, ptr noundef %1, i32 noundef %2) #0 {
  %4 = alloca i1, align 1
  %5 = alloca ptr, align 8
  %6 = alloca ptr, align 8
  %7 = alloca i32, align 4
  store ptr %0, ptr %5, align 8
  store ptr %1, ptr %6, align 8
  store i32 %2, ptr %7, align 4
  %8 = load ptr, ptr %5, align 8
  %9 = getelementptr inbounds nuw %struct._dumpOptions, ptr %8, i32 0, i32 1
  %10 = load i32, ptr %9, align 8
  %11 = icmp ne i32 %10, 0
  br i1 %11, label %12, label %13

12:                                               ; preds = %3
  store i1 true, ptr %4, align 1
  br label %39

13:                                               ; preds = %3
  %14 = load ptr, ptr %6, align 8
  %15 = getelementptr inbounds nuw %struct._tableInfo, ptr %14, i32 0, i32 45
  %16 = load ptr, ptr %15, align 8
  %17 = load i32, ptr %7, align 4
  %18 = sext i32 %17 to i64
  %19 = getelementptr inbounds i8, ptr %16, i64 %18
  %20 = load i8, ptr %19, align 1, !range !6, !noundef !7
  %21 = trunc i8 %20 to i1
  br i1 %21, label %22, label %23

22:                                               ; preds = %13
  store i1 false, ptr %4, align 1
  br label %39

23:                                               ; preds = %13
  %24 = load ptr, ptr %6, align 8
  %25 = getelementptr inbounds nuw %struct._tableInfo, ptr %24, i32 0, i32 50
  %26 = load ptr, ptr %25, align 8
  %27 = load i32, ptr %7, align 4
  %28 = sext i32 %27 to i64
  %29 = getelementptr inbounds i8, ptr %26, i64 %28
  %30 = load i8, ptr %29, align 1, !range !6, !noundef !7
  %31 = trunc i8 %30 to i1
  br i1 %31, label %37, label %32

32:                                               ; preds = %23
  %33 = load ptr, ptr %6, align 8
  %34 = getelementptr inbounds nuw %struct._tableInfo, ptr %33, i32 0, i32 35
  %35 = load i8, ptr %34, align 1, !range !6, !noundef !7
  %36 = trunc i8 %35 to i1
  br label %37

37:                                               ; preds = %32, %23
  %38 = phi i1 [ true, %23 ], [ %36, %32 ]
  store i1 %38, ptr %4, align 1
  br label %39

39:                                               ; preds = %37, %22, %12
  %40 = load i1, ptr %4, align 1
  ret i1 %40
}