; Function Attrs: mustprogress nofree norecurse nosync nounwind willreturn memory(read, inaccessiblemem: none) uwtable
define dso_local zeroext i1 @shouldPrintColumn(ptr noundef readonly captures(none) %0, ptr noundef readonly captures(none) %1, i32 noundef %2) local_unnamed_addr #12 {
  %4 = getelementptr inbounds nuw i8, ptr %0, i64 48
  %5 = load i32, ptr %4, align 8
  %.not = icmp eq i32 %5, 0
  br i1 %.not, label %6, label %23

6:                                                ; preds = %3
  %7 = getelementptr inbounds nuw i8, ptr %1, i64 280
  %8 = load ptr, ptr %7, align 8
  %9 = sext i32 %2 to i64
  %10 = getelementptr inbounds i8, ptr %8, i64 %9
  %11 = load i8, ptr %10, align 1, !range !7, !noundef !8
  %12 = trunc nuw i8 %11 to i1
  br i1 %12, label %23, label %13

13:                                               ; preds = %6
  %14 = getelementptr inbounds nuw i8, ptr %1, i64 320
  %15 = load ptr, ptr %14, align 8
  %16 = getelementptr inbounds i8, ptr %15, i64 %9
  %17 = load i8, ptr %16, align 1, !range !7, !noundef !8
  %18 = trunc nuw i8 %17 to i1
  br i1 %18, label %23, label %19

19:                                               ; preds = %13
  %20 = getelementptr inbounds nuw i8, ptr %1, i64 211
  %21 = load i8, ptr %20, align 1, !range !7, !noundef !8
  %22 = trunc nuw i8 %21 to i1
  br label %23

23:                                               ; preds = %13, %19, %6, %3
  %.0 = phi i1 [ true, %3 ], [ false, %6 ], [ true, %13 ], [ %22, %19 ]
  ret i1 %.0
}